; Function Attrs: nounwind uwtable
define ptr @l_Std_DHashMap_Internal_Raw_u2080_expand___at_Lean_Elab_Tactic_GuardMsgs_elabGuardMsgs___spec__30___boxed(ptr noundef %0, ptr noundef %1, ptr noundef %2) local_unnamed_addr #0 {
  %4 = getelementptr i8, ptr %2, i64 8
  %.val.i = load i64, ptr %4, align 8, !tbaa !11
  %5 = shl i64 %.val.i, 1
  %6 = or disjoint i64 %5, 1
  %7 = inttoptr i64 %6 to ptr
  %8 = and i64 %.val.i, 9223372036854775807
  %9 = icmp eq i64 %8, 0
  br i1 %9, label %l_Std_DHashMap_Internal_Raw_u2080_expand___at_Lean_Elab_Tactic_GuardMsgs_elabGuardMsgs___spec__30.exit, label %10

10:                                               ; preds = %3
  %mul.i12.mask.i = and i64 %.val.i, 4611686018427387904
  %11 = icmp eq i64 %mul.i12.mask.i, 0
  br i1 %11, label %12, label %16

12:                                               ; preds = %10
  %13 = shl nuw i64 %8, 2
  %14 = or disjoint i64 %13, 1
  %15 = inttoptr i64 %14 to ptr
  br label %l_Std_DHashMap_Internal_Raw_u2080_expand___at_Lean_Elab_Tactic_GuardMsgs_elabGuardMsgs___spec__30.exit

16:                                               ; preds = %10
  %17 = tail call ptr @lean_nat_overflow_mul(i64 noundef %8, i64 noundef 2) #7
  br label %l_Std_DHashMap_Internal_Raw_u2080_expand___at_Lean_Elab_Tactic_GuardMsgs_elabGuardMsgs___spec__30.exit

l_Std_DHashMap_Internal_Raw_u2080_expand___at_Lean_Elab_Tactic_GuardMsgs_elabGuardMsgs___spec__30.exit: ; preds = %3, %12, %16
  %.2.i.i = phi ptr [ %7, %3 ], [ %15, %12 ], [ %17, %16 ]
  %18 = tail call ptr @lean_mk_array(ptr noundef %.2.i.i, ptr noundef nonnull inttoptr (i64 1 to ptr)) #7
  %19 = tail call ptr @l_Std_DHashMap_Internal_Raw_u2080_expand_go___at_Lean_Elab_Tactic_GuardMsgs_elabGuardMsgs___spec__31(ptr readnone poison, ptr readnone poison, ptr noundef nonnull inttoptr (i64 1 to ptr), ptr noundef nonnull %2, ptr noundef %18)
  %20 = ptrtoint ptr %1 to i64
  %21 = and i64 %20, 1
  %.not = icmp eq i64 %21, 0
  br i1 %.not, label %22, label %lean_dec.exit6

22:                                               ; preds = %l_Std_DHashMap_Internal_Raw_u2080_expand___at_Lean_Elab_Tactic_GuardMsgs_elabGuardMsgs___spec__30.exit
  %23 = load i32, ptr %1, align 4, !tbaa !8
  %24 = icmp sgt i32 %23, 1
  br i1 %24, label %25, label %27, !prof !13

25:                                               ; preds = %22
  %26 = add nsw i32 %23, -1
  store i32 %26, ptr %1, align 4, !tbaa !8
  br label %lean_dec.exit6

27:                                               ; preds = %22
  %.not.i = icmp eq i32 %23, 0
  br i1 %.not.i, label %lean_dec.exit6, label %28

28:                                               ; preds = %27
  tail call void @lean_dec_ref_cold(ptr noundef nonnull %1) #7
  br label %lean_dec.exit6

lean_dec.exit6:                                   ; preds = %28, %27, %25, %l_Std_DHashMap_Internal_Raw_u2080_expand___at_Lean_Elab_Tactic_GuardMsgs_elabGuardMsgs___spec__30.exit
  %29 = ptrtoint ptr %0 to i64
  %30 = and i64 %29, 1
  %.not9 = icmp eq i64 %30, 0
  br i1 %.not9, label %31, label %lean_dec.exit

31:                                               ; preds = %lean_dec.exit6
  %32 = load i32, ptr %0, align 4, !tbaa !8
  %33 = icmp sgt i32 %32, 1
  br i1 %33, label %34, label %36, !prof !13

34:                                               ; preds = %31
  %35 = add nsw i32 %32, -1
  store i32 %35, ptr %0, align 4, !tbaa !8
  br label %lean_dec.exit

36:                                               ; preds = %31
  %.not.i7 = icmp eq i32 %32, 0
  br i1 %.not.i7, label %lean_dec.exit, label %37

37:                                               ; preds = %36
  tail call void @lean_dec_ref_cold(ptr noundef nonnull %0) #7
  br label %lean_dec.exit

lean_dec.exit:                                    ; preds = %37, %36, %34, %lean_dec.exit6
  ret ptr %19
}